; Function Attrs: mustprogress uwtable
define hidden { ptr, i32 } @_ZNK3smt9theory_bv18get_bv_with_theoryEji(ptr nocapture noundef nonnull readonly align 8 dereferenceable(1048) %this, i32 noundef %v, i32 noundef %id) local_unnamed_addr #3 align 2 personality ptr @__gxx_personality_v0 {
entry:
  %vec = alloca %class.svector.378, align 8
  %m_bool_var2atom.i = getelementptr inbounds i8, ptr %this, i64 392
  %0 = load ptr, ptr %m_bool_var2atom.i, align 8, !nonnull !49, !noundef !49
  %arrayidx.i.i.i = getelementptr inbounds i8, ptr %0, i64 -4
  %1 = load i32, ptr %arrayidx.i.i.i, align 4
  %cmp.not.i.i = icmp ugt i32 %1, %v
  tail call void @llvm.assume(i1 %cmp.not.i.i)
  %idxprom.i.i = zext i32 %v to i64
  %arrayidx.i.i = getelementptr inbounds ptr, ptr %0, i64 %idxprom.i.i
  %.then.val.i = load ptr, ptr %arrayidx.i.i, align 8
  store ptr null, ptr %vec, align 8
  %vtable = load ptr, ptr %.then.val.i, align 8
  %vfn = getelementptr inbounds i8, ptr %vtable, i64 16
  %2 = load ptr, ptr %vfn, align 8
  %call2 = invoke noundef zeroext i1 %2(ptr noundef nonnull align 8 dereferenceable(8) %.then.val.i)
          to label %invoke.cont unwind label %lpad.loopexit.split-lp

invoke.cont:                                      ; preds = %entry
  br i1 %call2, label %while.cond.preheader, label %_ZN7svectorISt4pairIPN3smt5enodeEjEjED2Ev.exit

while.cond.preheader:                             ; preds = %invoke.cont
  %m_var2enode.i = getelementptr inbounds i8, ptr %this, i64 32
  br label %while.cond

lpad.loopexit:                                    ; preds = %invoke.cont5
  %lpad.loopexit9 = landingpad { ptr, i32 }
          cleanup
  br label %lpad

lpad.loopexit.split-lp:                           ; preds = %entry
  %lpad.loopexit.split-lp10 = landingpad { ptr, i32 }
          cleanup
  br label %lpad

lpad:                                             ; preds = %lpad.loopexit.split-lp, %lpad.loopexit
  %lpad.phi = phi { ptr, i32 } [ %lpad.loopexit9, %lpad.loopexit ], [ %lpad.loopexit.split-lp10, %lpad.loopexit.split-lp ]
  call void @_ZN7svectorISt4pairIPN3smt5enodeEjEjED2Ev(ptr noundef nonnull align 8 dereferenceable(8) %vec) #23
  resume { ptr, i32 } %lpad.phi

while.cond:                                       ; preds = %while.cond.preheader, %invoke.cont7
  %call.pn = phi ptr [ %curr.0, %invoke.cont7 ], [ %.then.val.i, %while.cond.preheader ]
  %curr.0.in = getelementptr inbounds i8, ptr %call.pn, i64 8
  %curr.0 = load ptr, ptr %curr.0.in, align 8
  %tobool.not = icmp eq ptr %curr.0, null
  br i1 %tobool.not, label %_ZN7svectorISt4pairIPN3smt5enodeEjEjED2Ev.exit, label %invoke.cont5

invoke.cont5:                                     ; preds = %while.cond
  %3 = load i32, ptr %curr.0, align 8
  %4 = load ptr, ptr %m_var2enode.i, align 8
  %idxprom.i.i5 = zext i32 %3 to i64
  %arrayidx.i.i6 = getelementptr inbounds ptr, ptr %4, i64 %idxprom.i.i5
  %5 = load ptr, ptr %arrayidx.i.i6, align 8
  %call8 = invoke noundef i32 @_ZNK3smt5enode10get_th_varEi(ptr noundef nonnull align 8 dereferenceable(112) %5, i32 noundef %id)
          to label %invoke.cont7 unwind label %lpad.loopexit

invoke.cont7:                                     ; preds = %invoke.cont5
  %cmp.not = icmp eq i32 %call8, -1
  br i1 %cmp.not, label %while.cond, label %if.then9, !llvm.loop !76

if.then9:                                         ; preds = %invoke.cont7
  %m_idx = getelementptr inbounds i8, ptr %curr.0, i64 4
  %6 = load i32, ptr %m_idx, align 4
  br label %_ZN7svectorISt4pairIPN3smt5enodeEjEjED2Ev.exit

_ZN7svectorISt4pairIPN3smt5enodeEjEjED2Ev.exit:   ; preds = %while.cond, %if.then9, %invoke.cont
  %retval.sroa.0.0 = phi ptr [ %5, %if.then9 ], [ null, %invoke.cont ], [ null, %while.cond ]
  %retval.sroa.4.0 = phi i32 [ %6, %if.then9 ], [ -1, %invoke.cont ], [ -1, %while.cond ]
  %.fca.0.insert = insertvalue { ptr, i32 } poison, ptr %retval.sroa.0.0, 0
  %.fca.1.insert = insertvalue { ptr, i32 } %.fca.0.insert, i32 %retval.sroa.4.0, 1
  ret { ptr, i32 } %.fca.1.insert
}